; Function Attrs: nofree norecurse nosync nounwind memory(argmem: write) uwtable
define void @ff_vvc_ep_init_stat_coeff(ptr noundef writeonly captures(none) %0, i32 noundef %1, i32 noundef %2) local_unnamed_addr #5 {
  %.not = icmp eq i32 %2, 0
  %4 = getelementptr i8, ptr %0, i64 4
  br i1 %.not, label %.split.us.preheader, label %.split

.split.us.preheader:                              ; preds = %3
  tail call void @llvm.memset.p0.i64(ptr noundef nonnull align 4 dereferenceable(12) %4, i8 0, i64 12, i1 false), !tbaa !94
  br label %.split7.us

.split:                                           ; preds = %3
  %5 = add nsw i32 %1, -10
  %.not.i = icmp ult i32 %5, 65536
  %6 = lshr i32 %5, 16
  %spec.select.i = select i1 %.not.i, i32 %5, i32 %6
  %.not11.i = icmp samesign ult i32 %spec.select.i, 256
  %7 = lshr i32 %spec.select.i, 8
  %.110.i = select i1 %.not11.i, i32 %spec.select.i, i32 %7
  %8 = zext nneg i32 %.110.i to i64
  %9 = getelementptr inbounds nuw [256 x i8], ptr @ff_log2_tab, i64 0, i64 %8
  %spec.select12.i = select i1 %.not.i, i32 0, i32 16
  %10 = or disjoint i32 %spec.select12.i, 8
  %.1.i = select i1 %.not11.i, i32 %spec.select12.i, i32 %10
  %11 = load i8, ptr %9, align 1, !tbaa !93
  %12 = zext i8 %11 to i32
  %13 = add nuw nsw i32 %.1.i, %12
  %14 = shl nuw nsw i32 %13, 1
  br label %15

.split7.us:                                       ; preds = %15, %.split.us.preheader
  ret void

15:                                               ; preds = %.split, %15
  %.05 = phi i64 [ 0, %.split ], [ %17, %15 ]
  %16 = getelementptr inbounds nuw [3 x i32], ptr %4, i64 0, i64 %.05
  store i32 %14, ptr %16, align 4, !tbaa !94
  %17 = add nuw nsw i64 %.05, 1
  %exitcond.not = icmp eq i64 %17, 3
  br i1 %exitcond.not, label %.split7.us, label %15, !llvm.loop !193
}